target datalayout = "e-m:e-p270:32:32-p271:32:32-p272:64:64-i64:64-i128:128-f80:128-n8:16:32:64-S128"
target triple = "x86_64-pc-linux-gnu"

%struct.Vec_Int_t_ = type { i32, i32, ptr }
%struct.Vec_Wec_t_ = type { i32, i32, ptr }
%struct.Gia_ResbMan_t_ = type { i32, i32, i32, i32, i32, i32, i32, i32, ptr, ptr, [2 x ptr], [2 x ptr], [2 x ptr], ptr, [2 x ptr], [2 x ptr], ptr, [2 x ptr], ptr, ptr, ptr }
%struct.Vec_Ptr_t_ = type { i32, i32, ptr }
%struct.Vec_Wrd_t_ = type { i32, i32, ptr }

; Function Attrs: inlinehint nounwind uwtable
define internal ptr @Vec_WrdAlloc(i32 noundef %0) #2 {
  %2 = alloca i32, align 4
  %3 = alloca ptr, align 8
  store i32 %0, ptr %2, align 4, !tbaa !10
  call void @llvm.lifetime.start.p0(i64 8, ptr %3) #14
  %4 = call noalias ptr @malloc(i64 noundef 16) #15
  store ptr %4, ptr %3, align 8, !tbaa !85
  %5 = load i32, ptr %2, align 4, !tbaa !10
  %6 = icmp sgt i32 %5, 0
  br i1 %6, label %7, label %11

7:                                                ; preds = %1
  %8 = load i32, ptr %2, align 4, !tbaa !10
  %9 = icmp slt i32 %8, 16
  br i1 %9, label %10, label %11

10:                                               ; preds = %7
  store i32 16, ptr %2, align 4, !tbaa !10
  br label %11

11:                                               ; preds = %10, %7, %1
  %12 = load ptr, ptr %3, align 8, !tbaa !85
  %13 = getelementptr inbounds nuw %struct.Vec_Wrd_t_, ptr %12, i32 0, i32 1
  store i32 0, ptr %13, align 4, !tbaa !86
  %14 = load i32, ptr %2, align 4, !tbaa !10
  %15 = load ptr, ptr %3, align 8, !tbaa !85
  %16 = getelementptr inbounds nuw %struct.Vec_Wrd_t_, ptr %15, i32 0, i32 0
  store i32 %14, ptr %16, align 8, !tbaa !88
  %17 = load ptr, ptr %3, align 8, !tbaa !85
  %18 = getelementptr inbounds nuw %struct.Vec_Wrd_t_, ptr %17, i32 0, i32 0
  %19 = load i32, ptr %18, align 8, !tbaa !88
  %20 = icmp ne i32 %19, 0
  br i1 %20, label %21, label %28

21:                                               ; preds = %11
  %22 = load ptr, ptr %3, align 8, !tbaa !85
  %23 = getelementptr inbounds nuw %struct.Vec_Wrd_t_, ptr %22, i32 0, i32 0
  %24 = load i32, ptr %23, align 8, !tbaa !88
  %25 = sext i32 %24 to i64
  %26 = mul i64 8, %25
  %27 = call noalias ptr @malloc(i64 noundef %26) #15
  br label %29

28:                                               ; preds = %11
  br label %29

29:                                               ; preds = %28, %21
  %30 = phi ptr [ %27, %21 ], [ null, %28 ]
  %31 = load ptr, ptr %3, align 8, !tbaa !85
  %32 = getelementptr inbounds nuw %struct.Vec_Wrd_t_, ptr %31, i32 0, i32 2
  store ptr %30, ptr %32, align 8, !tbaa !89
  %33 = load ptr, ptr %3, align 8, !tbaa !85
  call void @llvm.lifetime.end.p0(i64 8, ptr %3) #14
  ret ptr %33
}

; Function Attrs: inlinehint nounwind uwtable
define internal ptr @Vec_PtrAlloc(i32 noundef %0) #2 {
  %2 = alloca i32, align 4
  %3 = alloca ptr, align 8
  store i32 %0, ptr %2, align 4, !tbaa !10
  call void @llvm.lifetime.start.p0(i64 8, ptr %3) #14
  %4 = call noalias ptr @malloc(i64 noundef 16) #15
  store ptr %4, ptr %3, align 8, !tbaa !80
  %5 = load i32, ptr %2, align 4, !tbaa !10
  %6 = icmp sgt i32 %5, 0
  br i1 %6, label %7, label %11

7:                                                ; preds = %1
  %8 = load i32, ptr %2, align 4, !tbaa !10
  %9 = icmp slt i32 %8, 8
  br i1 %9, label %10, label %11

10:                                               ; preds = %7
  store i32 8, ptr %2, align 4, !tbaa !10
  br label %11

11:                                               ; preds = %10, %7, %1
  %12 = load ptr, ptr %3, align 8, !tbaa !80
  %13 = getelementptr inbounds nuw %struct.Vec_Ptr_t_, ptr %12, i32 0, i32 1
  store i32 0, ptr %13, align 4, !tbaa !81
  %14 = load i32, ptr %2, align 4, !tbaa !10
  %15 = load ptr, ptr %3, align 8, !tbaa !80
  %16 = getelementptr inbounds nuw %struct.Vec_Ptr_t_, ptr %15, i32 0, i32 0
  store i32 %14, ptr %16, align 8, !tbaa !83
  %17 = load ptr, ptr %3, align 8, !tbaa !80
  %18 = getelementptr inbounds nuw %struct.Vec_Ptr_t_, ptr %17, i32 0, i32 0
  %19 = load i32, ptr %18, align 8, !tbaa !83
  %20 = icmp ne i32 %19, 0
  br i1 %20, label %21, label %28

21:                                               ; preds = %11
  %22 = load ptr, ptr %3, align 8, !tbaa !80
  %23 = getelementptr inbounds nuw %struct.Vec_Ptr_t_, ptr %22, i32 0, i32 0
  %24 = load i32, ptr %23, align 8, !tbaa !83
  %25 = sext i32 %24 to i64
  %26 = mul i64 8, %25
  %27 = call noalias ptr @malloc(i64 noundef %26) #15
  br label %29

28:                                               ; preds = %11
  br label %29

29:                                               ; preds = %28, %21
  %30 = phi ptr [ %27, %21 ], [ null, %28 ]
  %31 = load ptr, ptr %3, align 8, !tbaa !80
  %32 = getelementptr inbounds nuw %struct.Vec_Ptr_t_, ptr %31, i32 0, i32 2
  store ptr %30, ptr %32, align 8, !tbaa !84
  %33 = load ptr, ptr %3, align 8, !tbaa !80
  call void @llvm.lifetime.end.p0(i64 8, ptr %3) #14
  ret ptr %33
}

; Function Attrs: inlinehint nounwind uwtable
define internal ptr @Vec_WecAlloc(i32 noundef %0) #2 {
  %2 = alloca i32, align 4
  %3 = alloca ptr, align 8
  store i32 %0, ptr %2, align 4, !tbaa !10
  call void @llvm.lifetime.start.p0(i64 8, ptr %3) #14
  %4 = call noalias ptr @malloc(i64 noundef 16) #15
  store ptr %4, ptr %3, align 8, !tbaa !40
  %5 = load i32, ptr %2, align 4, !tbaa !10
  %6 = icmp sgt i32 %5, 0
  br i1 %6, label %7, label %11

7:                                                ; preds = %1
  %8 = load i32, ptr %2, align 4, !tbaa !10
  %9 = icmp slt i32 %8, 8
  br i1 %9, label %10, label %11

10:                                               ; preds = %7
  store i32 8, ptr %2, align 4, !tbaa !10
  br label %11

11:                                               ; preds = %10, %7, %1
  %12 = load ptr, ptr %3, align 8, !tbaa !40
  %13 = getelementptr inbounds nuw %struct.Vec_Wec_t_, ptr %12, i32 0, i32 1
  store i32 0, ptr %13, align 4, !tbaa !45
  %14 = load i32, ptr %2, align 4, !tbaa !10
  %15 = load ptr, ptr %3, align 8, !tbaa !40
  %16 = getelementptr inbounds nuw %struct.Vec_Wec_t_, ptr %15, i32 0, i32 0
  store i32 %14, ptr %16, align 8, !tbaa !47
  %17 = load ptr, ptr %3, align 8, !tbaa !40
  %18 = getelementptr inbounds nuw %struct.Vec_Wec_t_, ptr %17, i32 0, i32 0
  %19 = load i32, ptr %18, align 8, !tbaa !47
  %20 = icmp ne i32 %19, 0
  br i1 %20, label %21, label %27

21:                                               ; preds = %11
  %22 = load ptr, ptr %3, align 8, !tbaa !40
  %23 = getelementptr inbounds nuw %struct.Vec_Wec_t_, ptr %22, i32 0, i32 0
  %24 = load i32, ptr %23, align 8, !tbaa !47
  %25 = sext i32 %24 to i64
  %26 = call noalias ptr @calloc(i64 noundef %25, i64 noundef 16) #16
  br label %28

27:                                               ; preds = %11
  br label %28

28:                                               ; preds = %27, %21
  %29 = phi ptr [ %26, %21 ], [ null, %27 ]
  %30 = load ptr, ptr %3, align 8, !tbaa !40
  %31 = getelementptr inbounds nuw %struct.Vec_Wec_t_, ptr %30, i32 0, i32 2
  store ptr %29, ptr %31, align 8, !tbaa !48
  %32 = load ptr, ptr %3, align 8, !tbaa !40
  call void @llvm.lifetime.end.p0(i64 8, ptr %3) #14
  ret ptr %32
}

; Function Attrs: inlinehint nounwind uwtable
define internal ptr @Vec_IntAlloc(i32 noundef %0) #2 {
  %2 = alloca i32, align 4
  %3 = alloca ptr, align 8
  store i32 %0, ptr %2, align 4, !tbaa !10
  call void @llvm.lifetime.start.p0(i64 8, ptr %3) #14
  %4 = call noalias ptr @malloc(i64 noundef 16) #15
  store ptr %4, ptr %3, align 8, !tbaa !12
  %5 = load i32, ptr %2, align 4, !tbaa !10
  %6 = icmp sgt i32 %5, 0
  br i1 %6, label %7, label %11

7:                                                ; preds = %1
  %8 = load i32, ptr %2, align 4, !tbaa !10
  %9 = icmp slt i32 %8, 16
  br i1 %9, label %10, label %11

10:                                               ; preds = %7
  store i32 16, ptr %2, align 4, !tbaa !10
  br label %11

11:                                               ; preds = %10, %7, %1
  %12 = load ptr, ptr %3, align 8, !tbaa !12
  %13 = getelementptr inbounds nuw %struct.Vec_Int_t_, ptr %12, i32 0, i32 1
  store i32 0, ptr %13, align 4, !tbaa !14
  %14 = load i32, ptr %2, align 4, !tbaa !10
  %15 = load ptr, ptr %3, align 8, !tbaa !12
  %16 = getelementptr inbounds nuw %struct.Vec_Int_t_, ptr %15, i32 0, i32 0
  store i32 %14, ptr %16, align 8, !tbaa !17
  %17 = load ptr, ptr %3, align 8, !tbaa !12
  %18 = getelementptr inbounds nuw %struct.Vec_Int_t_, ptr %17, i32 0, i32 0
  %19 = load i32, ptr %18, align 8, !tbaa !17
  %20 = icmp ne i32 %19, 0
  br i1 %20, label %21, label %28

21:                                               ; preds = %11
  %22 = load ptr, ptr %3, align 8, !tbaa !12
  %23 = getelementptr inbounds nuw %struct.Vec_Int_t_, ptr %22, i32 0, i32 0
  %24 = load i32, ptr %23, align 8, !tbaa !17
  %25 = sext i32 %24 to i64
  %26 = mul i64 4, %25
  %27 = call noalias ptr @malloc(i64 noundef %26) #15
  br label %29

28:                                               ; preds = %11
  br label %29

29:                                               ; preds = %28, %21
  %30 = phi ptr [ %27, %21 ], [ null, %28 ]
  %31 = load ptr, ptr %3, align 8, !tbaa !12
  %32 = getelementptr inbounds nuw %struct.Vec_Int_t_, ptr %31, i32 0, i32 2
  store ptr %30, ptr %32, align 8, !tbaa !18
  %33 = load ptr, ptr %3, align 8, !tbaa !12
  call void @llvm.lifetime.end.p0(i64 8, ptr %3) #14
  ret ptr %33
}

; Function Attrs: nounwind uwtable
define ptr @Gia_ResbAlloc(i32 noundef %0) #0 {
  %2 = alloca i32, align 4
  %3 = alloca ptr, align 8
  store i32 %0, ptr %2, align 4, !tbaa !10
  call void @llvm.lifetime.start.p0(i64 8, ptr %3) #14
  %4 = call noalias ptr @calloc(i64 noundef 1, i64 noundef 184) #16
  store ptr %4, ptr %3, align 8, !tbaa !67
  %5 = load i32, ptr %2, align 4, !tbaa !10
  %6 = load ptr, ptr %3, align 8, !tbaa !67
  %7 = getelementptr inbounds nuw %struct.Gia_ResbMan_t_, ptr %6, i32 0, i32 0
  store i32 %5, ptr %7, align 8, !tbaa !69
  %8 = call ptr @Vec_IntAlloc(i32 noundef 100)
  %9 = load ptr, ptr %3, align 8, !tbaa !67
  %10 = getelementptr inbounds nuw %struct.Gia_ResbMan_t_, ptr %9, i32 0, i32 10
  %11 = getelementptr inbounds [2 x ptr], ptr %10, i64 0, i64 0
  store ptr %8, ptr %11, align 8, !tbaa !12
  %12 = call ptr @Vec_IntAlloc(i32 noundef 100)
  %13 = load ptr, ptr %3, align 8, !tbaa !67
  %14 = getelementptr inbounds nuw %struct.Gia_ResbMan_t_, ptr %13, i32 0, i32 10
  %15 = getelementptr inbounds [2 x ptr], ptr %14, i64 0, i64 1
  store ptr %12, ptr %15, align 8, !tbaa !12
  %16 = call ptr @Vec_IntAlloc(i32 noundef 100)
  %17 = load ptr, ptr %3, align 8, !tbaa !67
  %18 = getelementptr inbounds nuw %struct.Gia_ResbMan_t_, ptr %17, i32 0, i32 11
  %19 = getelementptr inbounds [2 x ptr], ptr %18, i64 0, i64 0
  store ptr %16, ptr %19, align 8, !tbaa !12
  %20 = call ptr @Vec_IntAlloc(i32 noundef 100)
  %21 = load ptr, ptr %3, align 8, !tbaa !67
  %22 = getelementptr inbounds nuw %struct.Gia_ResbMan_t_, ptr %21, i32 0, i32 11
  %23 = getelementptr inbounds [2 x ptr], ptr %22, i64 0, i64 1
  store ptr %20, ptr %23, align 8, !tbaa !12
  %24 = call ptr @Vec_IntAlloc(i32 noundef 100)
  %25 = load ptr, ptr %3, align 8, !tbaa !67
  %26 = getelementptr inbounds nuw %struct.Gia_ResbMan_t_, ptr %25, i32 0, i32 12
  %27 = getelementptr inbounds [2 x ptr], ptr %26, i64 0, i64 0
  store ptr %24, ptr %27, align 8, !tbaa !12
  %28 = call ptr @Vec_IntAlloc(i32 noundef 100)
  %29 = load ptr, ptr %3, align 8, !tbaa !67
  %30 = getelementptr inbounds nuw %struct.Gia_ResbMan_t_, ptr %29, i32 0, i32 12
  %31 = getelementptr inbounds [2 x ptr], ptr %30, i64 0, i64 1
  store ptr %28, ptr %31, align 8, !tbaa !12
  %32 = call ptr @Vec_IntAlloc(i32 noundef 100)
  %33 = load ptr, ptr %3, align 8, !tbaa !67
  %34 = getelementptr inbounds nuw %struct.Gia_ResbMan_t_, ptr %33, i32 0, i32 14
  %35 = getelementptr inbounds [2 x ptr], ptr %34, i64 0, i64 0
  store ptr %32, ptr %35, align 8, !tbaa !12
  %36 = call ptr @Vec_IntAlloc(i32 noundef 100)
  %37 = load ptr, ptr %3, align 8, !tbaa !67
  %38 = getelementptr inbounds nuw %struct.Gia_ResbMan_t_, ptr %37, i32 0, i32 14
  %39 = getelementptr inbounds [2 x ptr], ptr %38, i64 0, i64 1
  store ptr %36, ptr %39, align 8, !tbaa !12
  %40 = call ptr @Vec_IntAlloc(i32 noundef 100)
  %41 = load ptr, ptr %3, align 8, !tbaa !67
  %42 = getelementptr inbounds nuw %struct.Gia_ResbMan_t_, ptr %41, i32 0, i32 15
  %43 = getelementptr inbounds [2 x ptr], ptr %42, i64 0, i64 0
  store ptr %40, ptr %43, align 8, !tbaa !12
  %44 = call ptr @Vec_IntAlloc(i32 noundef 100)
  %45 = load ptr, ptr %3, align 8, !tbaa !67
  %46 = getelementptr inbounds nuw %struct.Gia_ResbMan_t_, ptr %45, i32 0, i32 15
  %47 = getelementptr inbounds [2 x ptr], ptr %46, i64 0, i64 1
  store ptr %44, ptr %47, align 8, !tbaa !12
  %48 = load i32, ptr %2, align 4, !tbaa !10
  %49 = mul nsw i32 %48, 64
  %50 = call ptr @Vec_WecAlloc(i32 noundef %49)
  %51 = load ptr, ptr %3, align 8, !tbaa !67
  %52 = getelementptr inbounds nuw %struct.Gia_ResbMan_t_, ptr %51, i32 0, i32 16
  store ptr %50, ptr %52, align 8, !tbaa !72
  %53 = call ptr @Vec_IntAlloc(i32 noundef 100)
  %54 = load ptr, ptr %3, align 8, !tbaa !67
  %55 = getelementptr inbounds nuw %struct.Gia_ResbMan_t_, ptr %54, i32 0, i32 13
  store ptr %53, ptr %55, align 8, !tbaa !73
  %56 = call ptr @Vec_IntAlloc(i32 noundef 100)
  %57 = load ptr, ptr %3, align 8, !tbaa !67
  %58 = getelementptr inbounds nuw %struct.Gia_ResbMan_t_, ptr %57, i32 0, i32 9
  store ptr %56, ptr %58, align 8, !tbaa !74
  %59 = call ptr @Vec_PtrAlloc(i32 noundef 100)
  %60 = load ptr, ptr %3, align 8, !tbaa !67
  %61 = getelementptr inbounds nuw %struct.Gia_ResbMan_t_, ptr %60, i32 0, i32 8
  store ptr %59, ptr %61, align 8, !tbaa !75
  %62 = load i32, ptr %2, align 4, !tbaa !10
  %63 = sext i32 %62 to i64
  %64 = call noalias ptr @calloc(i64 noundef %63, i64 noundef 8) #16
  %65 = load ptr, ptr %3, align 8, !tbaa !67
  %66 = getelementptr inbounds nuw %struct.Gia_ResbMan_t_, ptr %65, i32 0, i32 17
  %67 = getelementptr inbounds [2 x ptr], ptr %66, i64 0, i64 0
  store ptr %64, ptr %67, align 8, !tbaa !76
  %68 = load i32, ptr %2, align 4, !tbaa !10
  %69 = sext i32 %68 to i64
  %70 = call noalias ptr @calloc(i64 noundef %69, i64 noundef 8) #16
  %71 = load ptr, ptr %3, align 8, !tbaa !67
  %72 = getelementptr inbounds nuw %struct.Gia_ResbMan_t_, ptr %71, i32 0, i32 17
  %73 = getelementptr inbounds [2 x ptr], ptr %72, i64 0, i64 1
  store ptr %70, ptr %73, align 8, !tbaa !76
  %74 = load i32, ptr %2, align 4, !tbaa !10
  %75 = sext i32 %74 to i64
  %76 = call noalias ptr @calloc(i64 noundef %75, i64 noundef 8) #16
  %77 = load ptr, ptr %3, align 8, !tbaa !67
  %78 = getelementptr inbounds nuw %struct.Gia_ResbMan_t_, ptr %77, i32 0, i32 18
  store ptr %76, ptr %78, align 8, !tbaa !77
  %79 = load i32, ptr %2, align 4, !tbaa !10
  %80 = sext i32 %79 to i64
  %81 = call noalias ptr @calloc(i64 noundef %80, i64 noundef 8) #16
  %82 = load ptr, ptr %3, align 8, !tbaa !67
  %83 = getelementptr inbounds nuw %struct.Gia_ResbMan_t_, ptr %82, i32 0, i32 19
  store ptr %81, ptr %83, align 8, !tbaa !78
  %84 = call ptr @Vec_WrdAlloc(i32 noundef 100)
  %85 = load ptr, ptr %3, align 8, !tbaa !67
  %86 = getelementptr inbounds nuw %struct.Gia_ResbMan_t_, ptr %85, i32 0, i32 20
  store ptr %84, ptr %86, align 8, !tbaa !79
  %87 = load ptr, ptr %3, align 8, !tbaa !67
  call void @llvm.lifetime.end.p0(i64 8, ptr %3) #14
  ret ptr %87
}