; Function Attrs: mustprogress nofree nounwind willreturn memory(write, argmem: none, inaccessiblemem: readwrite) uwtable
define noalias noundef ptr @Gia_ResbAlloc(i32 noundef %0) local_unnamed_addr #7 {
  %2 = tail call noalias dereferenceable_or_null(184) ptr @calloc(i64 noundef 1, i64 noundef 184) #33
  store i32 %0, ptr %2, align 8, !tbaa !66
  %3 = tail call noalias dereferenceable_or_null(16) ptr @malloc(i64 noundef 16) #31
  %4 = getelementptr inbounds nuw i8, ptr %3, i64 4
  store i32 0, ptr %4, align 4, !tbaa !28
  store i32 100, ptr %3, align 8, !tbaa !29
  %5 = tail call noalias dereferenceable_or_null(400) ptr @malloc(i64 noundef 400) #31
  %6 = getelementptr inbounds nuw i8, ptr %3, i64 8
  store ptr %5, ptr %6, align 8, !tbaa !30
  %7 = getelementptr inbounds nuw i8, ptr %2, i64 48
  store ptr %3, ptr %7, align 8, !tbaa !69
  %8 = tail call noalias dereferenceable_or_null(16) ptr @malloc(i64 noundef 16) #31
  %9 = getelementptr inbounds nuw i8, ptr %8, i64 4
  store i32 0, ptr %9, align 4, !tbaa !28
  store i32 100, ptr %8, align 8, !tbaa !29
  %10 = tail call noalias dereferenceable_or_null(400) ptr @malloc(i64 noundef 400) #31
  %11 = getelementptr inbounds nuw i8, ptr %8, i64 8
  store ptr %10, ptr %11, align 8, !tbaa !30
  %12 = getelementptr inbounds nuw i8, ptr %2, i64 56
  store ptr %8, ptr %12, align 8, !tbaa !69
  %13 = tail call noalias dereferenceable_or_null(16) ptr @malloc(i64 noundef 16) #31
  %14 = getelementptr inbounds nuw i8, ptr %13, i64 4
  store i32 0, ptr %14, align 4, !tbaa !28
  store i32 100, ptr %13, align 8, !tbaa !29
  %15 = tail call noalias dereferenceable_or_null(400) ptr @malloc(i64 noundef 400) #31
  %16 = getelementptr inbounds nuw i8, ptr %13, i64 8
  store ptr %15, ptr %16, align 8, !tbaa !30
  %17 = getelementptr inbounds nuw i8, ptr %2, i64 64
  store ptr %13, ptr %17, align 8, !tbaa !69
  %18 = tail call noalias dereferenceable_or_null(16) ptr @malloc(i64 noundef 16) #31
  %19 = getelementptr inbounds nuw i8, ptr %18, i64 4
  store i32 0, ptr %19, align 4, !tbaa !28
  store i32 100, ptr %18, align 8, !tbaa !29
  %20 = tail call noalias dereferenceable_or_null(400) ptr @malloc(i64 noundef 400) #31
  %21 = getelementptr inbounds nuw i8, ptr %18, i64 8
  store ptr %20, ptr %21, align 8, !tbaa !30
  %22 = getelementptr inbounds nuw i8, ptr %2, i64 72
  store ptr %18, ptr %22, align 8, !tbaa !69
  %23 = tail call noalias dereferenceable_or_null(16) ptr @malloc(i64 noundef 16) #31
  %24 = getelementptr inbounds nuw i8, ptr %23, i64 4
  store i32 0, ptr %24, align 4, !tbaa !28
  store i32 100, ptr %23, align 8, !tbaa !29
  %25 = tail call noalias dereferenceable_or_null(400) ptr @malloc(i64 noundef 400) #31
  %26 = getelementptr inbounds nuw i8, ptr %23, i64 8
  store ptr %25, ptr %26, align 8, !tbaa !30
  %27 = getelementptr inbounds nuw i8, ptr %2, i64 80
  store ptr %23, ptr %27, align 8, !tbaa !69
  %28 = tail call noalias dereferenceable_or_null(16) ptr @malloc(i64 noundef 16) #31
  %29 = getelementptr inbounds nuw i8, ptr %28, i64 4
  store i32 0, ptr %29, align 4, !tbaa !28
  store i32 100, ptr %28, align 8, !tbaa !29
  %30 = tail call noalias dereferenceable_or_null(400) ptr @malloc(i64 noundef 400) #31
  %31 = getelementptr inbounds nuw i8, ptr %28, i64 8
  store ptr %30, ptr %31, align 8, !tbaa !30
  %32 = getelementptr inbounds nuw i8, ptr %2, i64 88
  store ptr %28, ptr %32, align 8, !tbaa !69
  %33 = tail call noalias dereferenceable_or_null(16) ptr @malloc(i64 noundef 16) #31
  %34 = getelementptr inbounds nuw i8, ptr %33, i64 4
  store i32 0, ptr %34, align 4, !tbaa !28
  store i32 100, ptr %33, align 8, !tbaa !29
  %35 = tail call noalias dereferenceable_or_null(400) ptr @malloc(i64 noundef 400) #31
  %36 = getelementptr inbounds nuw i8, ptr %33, i64 8
  store ptr %35, ptr %36, align 8, !tbaa !30
  %37 = getelementptr inbounds nuw i8, ptr %2, i64 104
  store ptr %33, ptr %37, align 8, !tbaa !69
  %38 = tail call noalias dereferenceable_or_null(16) ptr @malloc(i64 noundef 16) #31
  %39 = getelementptr inbounds nuw i8, ptr %38, i64 4
  store i32 0, ptr %39, align 4, !tbaa !28
  store i32 100, ptr %38, align 8, !tbaa !29
  %40 = tail call noalias dereferenceable_or_null(400) ptr @malloc(i64 noundef 400) #31
  %41 = getelementptr inbounds nuw i8, ptr %38, i64 8
  store ptr %40, ptr %41, align 8, !tbaa !30
  %42 = getelementptr inbounds nuw i8, ptr %2, i64 112
  store ptr %38, ptr %42, align 8, !tbaa !69
  %43 = tail call noalias dereferenceable_or_null(16) ptr @malloc(i64 noundef 16) #31
  %44 = getelementptr inbounds nuw i8, ptr %43, i64 4
  store i32 0, ptr %44, align 4, !tbaa !28
  store i32 100, ptr %43, align 8, !tbaa !29
  %45 = tail call noalias dereferenceable_or_null(400) ptr @malloc(i64 noundef 400) #31
  %46 = getelementptr inbounds nuw i8, ptr %43, i64 8
  store ptr %45, ptr %46, align 8, !tbaa !30
  %47 = getelementptr inbounds nuw i8, ptr %2, i64 120
  store ptr %43, ptr %47, align 8, !tbaa !69
  %48 = tail call noalias dereferenceable_or_null(16) ptr @malloc(i64 noundef 16) #31
  %49 = getelementptr inbounds nuw i8, ptr %48, i64 4
  store i32 0, ptr %49, align 4, !tbaa !28
  store i32 100, ptr %48, align 8, !tbaa !29
  %50 = tail call noalias dereferenceable_or_null(400) ptr @malloc(i64 noundef 400) #31
  %51 = getelementptr inbounds nuw i8, ptr %48, i64 8
  store ptr %50, ptr %51, align 8, !tbaa !30
  %52 = getelementptr inbounds nuw i8, ptr %2, i64 128
  store ptr %48, ptr %52, align 8, !tbaa !69
  %53 = shl nsw i32 %0, 6
  %54 = tail call noalias dereferenceable_or_null(16) ptr @malloc(i64 noundef 16) #31
  %55 = getelementptr inbounds nuw i8, ptr %54, i64 4
  store i32 0, ptr %55, align 4, !tbaa !37
  store i32 %53, ptr %54, align 8, !tbaa !39
  %.not.i = icmp eq i32 %0, 0
  br i1 %.not.i, label %Vec_WecAlloc.exit, label %56

56:                                               ; preds = %1
  %57 = sext i32 %53 to i64
  %58 = tail call noalias ptr @calloc(i64 noundef %57, i64 noundef 16) #33
  br label %Vec_WecAlloc.exit

Vec_WecAlloc.exit:                                ; preds = %1, %56
  %59 = phi ptr [ %58, %56 ], [ null, %1 ]
  %60 = getelementptr inbounds nuw i8, ptr %54, i64 8
  store ptr %59, ptr %60, align 8, !tbaa !40
  %61 = getelementptr inbounds nuw i8, ptr %2, i64 136
  store ptr %54, ptr %61, align 8, !tbaa !70
  %62 = tail call noalias dereferenceable_or_null(16) ptr @malloc(i64 noundef 16) #31
  %63 = getelementptr inbounds nuw i8, ptr %62, i64 4
  store i32 0, ptr %63, align 4, !tbaa !28
  store i32 100, ptr %62, align 8, !tbaa !29
  %64 = tail call noalias dereferenceable_or_null(400) ptr @malloc(i64 noundef 400) #31
  %65 = getelementptr inbounds nuw i8, ptr %62, i64 8
  store ptr %64, ptr %65, align 8, !tbaa !30
  %66 = getelementptr inbounds nuw i8, ptr %2, i64 96
  store ptr %62, ptr %66, align 8, !tbaa !71
  %67 = tail call noalias dereferenceable_or_null(16) ptr @malloc(i64 noundef 16) #31
  %68 = getelementptr inbounds nuw i8, ptr %67, i64 4
  store i32 0, ptr %68, align 4, !tbaa !28
  store i32 100, ptr %67, align 8, !tbaa !29
  %69 = tail call noalias dereferenceable_or_null(400) ptr @malloc(i64 noundef 400) #31
  %70 = getelementptr inbounds nuw i8, ptr %67, i64 8
  store ptr %69, ptr %70, align 8, !tbaa !30
  %71 = getelementptr inbounds nuw i8, ptr %2, i64 40
  store ptr %67, ptr %71, align 8, !tbaa !72
  %72 = tail call noalias dereferenceable_or_null(16) ptr @malloc(i64 noundef 16) #31
  %73 = getelementptr inbounds nuw i8, ptr %72, i64 4
  store i32 0, ptr %73, align 4, !tbaa !73
  store i32 100, ptr %72, align 8, !tbaa !75
  %74 = tail call noalias dereferenceable_or_null(800) ptr @malloc(i64 noundef 800) #31
  %75 = getelementptr inbounds nuw i8, ptr %72, i64 8
  store ptr %74, ptr %75, align 8, !tbaa !76
  %76 = getelementptr inbounds nuw i8, ptr %2, i64 32
  store ptr %72, ptr %76, align 8, !tbaa !77
  %77 = sext i32 %0 to i64
  %78 = tail call noalias ptr @calloc(i64 noundef %77, i64 noundef 8) #33
  %79 = getelementptr inbounds nuw i8, ptr %2, i64 144
  store ptr %78, ptr %79, align 8, !tbaa !78
  %80 = tail call noalias ptr @calloc(i64 noundef %77, i64 noundef 8) #33
  %81 = getelementptr inbounds nuw i8, ptr %2, i64 152
  store ptr %80, ptr %81, align 8, !tbaa !78
  %82 = tail call noalias ptr @calloc(i64 noundef %77, i64 noundef 8) #33
  %83 = getelementptr inbounds nuw i8, ptr %2, i64 160
  store ptr %82, ptr %83, align 8, !tbaa !79
  %84 = tail call noalias ptr @calloc(i64 noundef %77, i64 noundef 8) #33
  %85 = getelementptr inbounds nuw i8, ptr %2, i64 168
  store ptr %84, ptr %85, align 8, !tbaa !80
  %86 = tail call noalias dereferenceable_or_null(16) ptr @malloc(i64 noundef 16) #31
  %87 = getelementptr inbounds nuw i8, ptr %86, i64 4
  store i32 0, ptr %87, align 4, !tbaa !81
  store i32 100, ptr %86, align 8, !tbaa !83
  %88 = tail call noalias dereferenceable_or_null(800) ptr @malloc(i64 noundef 800) #31
  %89 = getelementptr inbounds nuw i8, ptr %86, i64 8
  store ptr %88, ptr %89, align 8, !tbaa !84
  %90 = getelementptr inbounds nuw i8, ptr %2, i64 176
  store ptr %86, ptr %90, align 8, !tbaa !85
  ret ptr %2
}